target datalayout = "e-m:e-p270:32:32-p271:32:32-p272:64:64-i64:64-i128:128-f80:128-n8:16:32:64-S128"
target triple = "x86_64-pc-linux-gnu"

%struct.nk_vec2 = type { float, float }
%struct.nk_color = type { i8, i8, i8, i8 }
%union.nk_handle = type { ptr }
%struct.nk_image = type { %union.nk_handle, i16, i16, [4 x i16] }
%struct.nk_nine_slice = type { %struct.nk_image, i16, i16, i16, i16 }
%struct.nk_style_button = type { %struct.nk_style_item, %struct.nk_style_item, %struct.nk_style_item, %struct.nk_color, float, %struct.nk_color, %struct.nk_color, %struct.nk_color, %struct.nk_color, i32, float, float, float, %struct.nk_vec2, %struct.nk_vec2, %struct.nk_vec2, float, %union.nk_handle, ptr, ptr }
%struct.nk_style_item = type { i32, %union.nk_style_item_data }
%union.nk_style_item_data = type { %struct.nk_nine_slice }

@nk_white = internal constant %struct.nk_color { i8 -1, i8 -1, i8 -1, i8 -1 }, align 1

; Function Attrs: nounwind uwtable
define i32 @nk_rgb_factor(i32 %0, float noundef %1) #0 {
  %3 = alloca %struct.nk_color, align 1
  %4 = alloca %struct.nk_color, align 1
  %5 = alloca float, align 4
  store i32 %0, ptr %4, align 1
  store float %1, ptr %5, align 4, !tbaa !4
  %6 = load float, ptr %5, align 4, !tbaa !4
  %7 = fcmp oeq float %6, 1.000000e+00
  br i1 %7, label %8, label %9

8:                                                ; preds = %2
  call void @llvm.memcpy.p0.p0.i64(ptr align 1 %3, ptr align 1 %4, i64 4, i1 false), !tbaa.struct !48
  br label %34

9:                                                ; preds = %2
  %10 = getelementptr inbounds nuw %struct.nk_color, ptr %4, i32 0, i32 0
  %11 = load i8, ptr %10, align 1, !tbaa !49
  %12 = zext i8 %11 to i32
  %13 = sitofp i32 %12 to float
  %14 = load float, ptr %5, align 4, !tbaa !4
  %15 = fmul float %13, %14
  %16 = fptoui float %15 to i8
  %17 = getelementptr inbounds nuw %struct.nk_color, ptr %4, i32 0, i32 0
  store i8 %16, ptr %17, align 1, !tbaa !49
  %18 = getelementptr inbounds nuw %struct.nk_color, ptr %4, i32 0, i32 1
  %19 = load i8, ptr %18, align 1, !tbaa !51
  %20 = zext i8 %19 to i32
  %21 = sitofp i32 %20 to float
  %22 = load float, ptr %5, align 4, !tbaa !4
  %23 = fmul float %21, %22
  %24 = fptoui float %23 to i8
  %25 = getelementptr inbounds nuw %struct.nk_color, ptr %4, i32 0, i32 1
  store i8 %24, ptr %25, align 1, !tbaa !51
  %26 = getelementptr inbounds nuw %struct.nk_color, ptr %4, i32 0, i32 2
  %27 = load i8, ptr %26, align 1, !tbaa !52
  %28 = zext i8 %27 to i32
  %29 = sitofp i32 %28 to float
  %30 = load float, ptr %5, align 4, !tbaa !4
  %31 = fmul float %29, %30
  %32 = fptoui float %31 to i8
  %33 = getelementptr inbounds nuw %struct.nk_color, ptr %4, i32 0, i32 2
  store i8 %32, ptr %33, align 1, !tbaa !52
  call void @llvm.memcpy.p0.p0.i64(ptr align 1 %3, ptr align 1 %4, i64 4, i1 false), !tbaa.struct !48
  br label %34

34:                                               ; preds = %9, %8
  %35 = load i32, ptr %3, align 1
  ret i32 %35
}

; Function Attrs: nounwind uwtable
define internal ptr @nk_draw_button(ptr noundef %0, ptr noundef %1, i32 noundef %2, ptr noundef %3) #2 {
  %5 = alloca ptr, align 8
  %6 = alloca ptr, align 8
  %7 = alloca i32, align 4
  %8 = alloca ptr, align 8
  %9 = alloca ptr, align 8
  %10 = alloca %struct.nk_color, align 1
  %11 = alloca %struct.nk_color, align 1
  %12 = alloca %struct.nk_color, align 1
  %13 = alloca %struct.nk_color, align 1
  store ptr %0, ptr %5, align 8, !tbaa !126
  store ptr %1, ptr %6, align 8, !tbaa !169
  store i32 %2, ptr %7, align 4, !tbaa !13
  store ptr %3, ptr %8, align 8, !tbaa !825
  call void @llvm.lifetime.start.p0(i64 8, ptr %9) #10
  %14 = load i32, ptr %7, align 4, !tbaa !13
  %15 = and i32 %14, 16
  %16 = icmp ne i32 %15, 0
  br i1 %16, label %17, label %20

17:                                               ; preds = %4
  %18 = load ptr, ptr %8, align 8, !tbaa !825
  %19 = getelementptr inbounds nuw %struct.nk_style_button, ptr %18, i32 0, i32 1
  store ptr %19, ptr %9, align 8, !tbaa !975
  br label %31

20:                                               ; preds = %4
  %21 = load i32, ptr %7, align 4, !tbaa !13
  %22 = and i32 %21, 32
  %23 = icmp ne i32 %22, 0
  br i1 %23, label %24, label %27

24:                                               ; preds = %20
  %25 = load ptr, ptr %8, align 8, !tbaa !825
  %26 = getelementptr inbounds nuw %struct.nk_style_button, ptr %25, i32 0, i32 2
  store ptr %26, ptr %9, align 8, !tbaa !975
  br label %30

27:                                               ; preds = %20
  %28 = load ptr, ptr %8, align 8, !tbaa !825
  %29 = getelementptr inbounds nuw %struct.nk_style_button, ptr %28, i32 0, i32 0
  store ptr %29, ptr %9, align 8, !tbaa !975
  br label %30

30:                                               ; preds = %27, %24
  br label %31

31:                                               ; preds = %30, %17
  %32 = load ptr, ptr %9, align 8, !tbaa !975
  %33 = getelementptr inbounds nuw %struct.nk_style_item, ptr %32, i32 0, i32 0
  %34 = load i32, ptr %33, align 8, !tbaa !951
  switch i32 %34, label %103 [
    i32 1, label %35
    i32 2, label %50
    i32 0, label %65
  ]

35:                                               ; preds = %31
  %36 = load ptr, ptr %5, align 8, !tbaa !126
  %37 = load ptr, ptr %6, align 8, !tbaa !169
  %38 = load ptr, ptr %9, align 8, !tbaa !975
  %39 = getelementptr inbounds nuw %struct.nk_style_item, ptr %38, i32 0, i32 1
  %40 = load ptr, ptr %8, align 8, !tbaa !825
  %41 = getelementptr inbounds nuw %struct.nk_style_button, ptr %40, i32 0, i32 4
  %42 = load float, ptr %41, align 4, !tbaa !832
  %43 = load i32, ptr @nk_white, align 1
  %44 = call i32 @nk_rgb_factor(i32 %43, float noundef %42)
  store i32 %44, ptr %10, align 1
  %45 = getelementptr inbounds nuw { <2 x float>, <2 x float> }, ptr %37, i32 0, i32 0
  %46 = load <2 x float>, ptr %45, align 4
  %47 = getelementptr inbounds nuw { <2 x float>, <2 x float> }, ptr %37, i32 0, i32 1
  %48 = load <2 x float>, ptr %47, align 4
  %49 = load i32, ptr %10, align 1
  call void @nk_draw_image(ptr noundef %36, <2 x float> %46, <2 x float> %48, ptr noundef %39, i32 %49)
  br label %103

50:                                               ; preds = %31
  %51 = load ptr, ptr %5, align 8, !tbaa !126
  %52 = load ptr, ptr %6, align 8, !tbaa !169
  %53 = load ptr, ptr %9, align 8, !tbaa !975
  %54 = getelementptr inbounds nuw %struct.nk_style_item, ptr %53, i32 0, i32 1
  %55 = load ptr, ptr %8, align 8, !tbaa !825
  %56 = getelementptr inbounds nuw %struct.nk_style_button, ptr %55, i32 0, i32 4
  %57 = load float, ptr %56, align 4, !tbaa !832
  %58 = load i32, ptr @nk_white, align 1
  %59 = call i32 @nk_rgb_factor(i32 %58, float noundef %57)
  store i32 %59, ptr %11, align 1
  %60 = getelementptr inbounds nuw { <2 x float>, <2 x float> }, ptr %52, i32 0, i32 0
  %61 = load <2 x float>, ptr %60, align 4
  %62 = getelementptr inbounds nuw { <2 x float>, <2 x float> }, ptr %52, i32 0, i32 1
  %63 = load <2 x float>, ptr %62, align 4
  %64 = load i32, ptr %11, align 1
  call void @nk_draw_nine_slice(ptr noundef %51, <2 x float> %61, <2 x float> %63, ptr noundef %54, i32 %64)
  br label %103

65:                                               ; preds = %31
  %66 = load ptr, ptr %5, align 8, !tbaa !126
  %67 = load ptr, ptr %6, align 8, !tbaa !169
  %68 = load ptr, ptr %8, align 8, !tbaa !825
  %69 = getelementptr inbounds nuw %struct.nk_style_button, ptr %68, i32 0, i32 12
  %70 = load float, ptr %69, align 4, !tbaa !830
  %71 = load ptr, ptr %9, align 8, !tbaa !975
  %72 = getelementptr inbounds nuw %struct.nk_style_item, ptr %71, i32 0, i32 1
  %73 = load ptr, ptr %8, align 8, !tbaa !825
  %74 = getelementptr inbounds nuw %struct.nk_style_button, ptr %73, i32 0, i32 4
  %75 = load float, ptr %74, align 4, !tbaa !832
  %76 = load i32, ptr %72, align 8
  %77 = call i32 @nk_rgb_factor(i32 %76, float noundef %75)
  store i32 %77, ptr %12, align 1
  %78 = getelementptr inbounds nuw { <2 x float>, <2 x float> }, ptr %67, i32 0, i32 0
  %79 = load <2 x float>, ptr %78, align 4
  %80 = getelementptr inbounds nuw { <2 x float>, <2 x float> }, ptr %67, i32 0, i32 1
  %81 = load <2 x float>, ptr %80, align 4
  %82 = load i32, ptr %12, align 1
  call void @nk_fill_rect(ptr noundef %66, <2 x float> %79, <2 x float> %81, float noundef %70, i32 %82)
  %83 = load ptr, ptr %5, align 8, !tbaa !126
  %84 = load ptr, ptr %6, align 8, !tbaa !169
  %85 = load ptr, ptr %8, align 8, !tbaa !825
  %86 = getelementptr inbounds nuw %struct.nk_style_button, ptr %85, i32 0, i32 12
  %87 = load float, ptr %86, align 4, !tbaa !830
  %88 = load ptr, ptr %8, align 8, !tbaa !825
  %89 = getelementptr inbounds nuw %struct.nk_style_button, ptr %88, i32 0, i32 11
  %90 = load float, ptr %89, align 8, !tbaa !829
  %91 = load ptr, ptr %8, align 8, !tbaa !825
  %92 = getelementptr inbounds nuw %struct.nk_style_button, ptr %91, i32 0, i32 3
  %93 = load ptr, ptr %8, align 8, !tbaa !825
  %94 = getelementptr inbounds nuw %struct.nk_style_button, ptr %93, i32 0, i32 4
  %95 = load float, ptr %94, align 4, !tbaa !832
  %96 = load i32, ptr %92, align 8
  %97 = call i32 @nk_rgb_factor(i32 %96, float noundef %95)
  store i32 %97, ptr %13, align 1
  %98 = getelementptr inbounds nuw { <2 x float>, <2 x float> }, ptr %84, i32 0, i32 0
  %99 = load <2 x float>, ptr %98, align 4
  %100 = getelementptr inbounds nuw { <2 x float>, <2 x float> }, ptr %84, i32 0, i32 1
  %101 = load <2 x float>, ptr %100, align 4
  %102 = load i32, ptr %13, align 1
  call void @nk_stroke_rect(ptr noundef %83, <2 x float> %99, <2 x float> %101, float noundef %87, float noundef %90, i32 %102)
  br label %103

103:                                              ; preds = %31, %65, %50, %35
  %104 = load ptr, ptr %9, align 8, !tbaa !975
  call void @llvm.lifetime.end.p0(i64 8, ptr %9) #10
  ret ptr %104
}