; Function Attrs: nounwind uwtable
define internal fastcc noundef nonnull ptr @nk_draw_button(ptr noundef nonnull captures(address_is_null) %0, ptr noundef nonnull readonly captures(none) %1, i32 noundef %2, ptr noundef nonnull readonly captures(ret: address, provenance) %3) unnamed_addr #21 {
  %5 = and i32 %2, 16
  %.not = icmp eq i32 %5, 0
  %6 = and i32 %2, 32
  %.not28 = icmp eq i32 %6, 0
  %spec.select.idx = select i1 %.not28, i64 0, i64 80
  %.0.v = select i1 %.not, i64 %spec.select.idx, i64 40
  %.0 = getelementptr inbounds nuw i8, ptr %3, i64 %.0.v
  %7 = load i32, ptr %.0, align 8, !tbaa !820
  switch i32 %7, label %76 [
    i32 1, label %nk_rgb_factor.exit
    i32 2, label %nk_rgb_factor.exit40
    i32 0, label %28
  ]

nk_rgb_factor.exit:                               ; preds = %4
  %8 = getelementptr inbounds nuw i8, ptr %.0, i64 8
  %9 = getelementptr inbounds nuw i8, ptr %3, i64 124
  %10 = load float, ptr %9, align 4, !tbaa !747
  %11 = fcmp oeq float %10, 1.000000e+00
  %12 = fmul float %10, 2.550000e+02
  %13 = fptoui float %12 to i8
  %14 = zext i8 %13 to i32
  %.sroa.512.0.insert.ext.i = select i1 %11, i32 255, i32 %14
  %.sroa.512.0.insert.shift.i = shl nuw nsw i32 %.sroa.512.0.insert.ext.i, 16
  %.sroa.3.0.insert.shift.i = shl nuw nsw i32 %.sroa.512.0.insert.ext.i, 8
  %.sroa.512.0.insert.insert.i = or disjoint i32 %.sroa.512.0.insert.shift.i, %.sroa.3.0.insert.shift.i
  %.sroa.3.0.insert.insert.i = or disjoint i32 %.sroa.512.0.insert.insert.i, %.sroa.512.0.insert.ext.i
  %.sroa.011.0.insert.insert.i = or disjoint i32 %.sroa.3.0.insert.insert.i, -16777216
  %15 = load <2 x float>, ptr %1, align 4
  %16 = getelementptr inbounds nuw i8, ptr %1, i64 8
  %17 = load <2 x float>, ptr %16, align 4
  tail call void @nk_draw_image(ptr noundef nonnull %0, <2 x float> %15, <2 x float> %17, ptr noundef nonnull %8, i32 %.sroa.011.0.insert.insert.i)
  br label %76

nk_rgb_factor.exit40:                             ; preds = %4
  %18 = getelementptr inbounds nuw i8, ptr %.0, i64 8
  %19 = getelementptr inbounds nuw i8, ptr %3, i64 124
  %20 = load float, ptr %19, align 4, !tbaa !747
  %21 = fcmp oeq float %20, 1.000000e+00
  %22 = fmul float %20, 2.550000e+02
  %23 = fptoui float %22 to i8
  %24 = zext i8 %23 to i32
  %.sroa.512.0.insert.ext.i32 = select i1 %21, i32 255, i32 %24
  %.sroa.512.0.insert.shift.i33 = shl nuw nsw i32 %.sroa.512.0.insert.ext.i32, 16
  %.sroa.3.0.insert.shift.i36 = shl nuw nsw i32 %.sroa.512.0.insert.ext.i32, 8
  %.sroa.512.0.insert.insert.i34 = or disjoint i32 %.sroa.512.0.insert.shift.i33, %.sroa.3.0.insert.shift.i36
  %.sroa.3.0.insert.insert.i37 = or disjoint i32 %.sroa.512.0.insert.insert.i34, %.sroa.512.0.insert.ext.i32
  %.sroa.011.0.insert.insert.i39 = or disjoint i32 %.sroa.3.0.insert.insert.i37, -16777216
  %25 = load <2 x float>, ptr %1, align 4
  %26 = getelementptr inbounds nuw i8, ptr %1, i64 8
  %27 = load <2 x float>, ptr %26, align 4
  tail call void @nk_draw_nine_slice(ptr noundef nonnull %0, <2 x float> %25, <2 x float> %27, ptr noundef nonnull %18, i32 %.sroa.011.0.insert.insert.i39)
  br label %76

28:                                               ; preds = %4
  %29 = getelementptr inbounds nuw i8, ptr %3, i64 156
  %30 = load float, ptr %29, align 4, !tbaa !745
  %31 = getelementptr inbounds nuw i8, ptr %.0, i64 8
  %32 = getelementptr inbounds nuw i8, ptr %3, i64 124
  %33 = load float, ptr %32, align 4, !tbaa !747
  %34 = load i32, ptr %31, align 8
  %.sroa.5.0.extract.shift.i = lshr i32 %34, 8
  %.sroa.7.0.extract.shift.i = lshr i32 %34, 16
  %35 = fcmp oeq float %33, 1.000000e+00
  br i1 %35, label %36, label %37

36:                                               ; preds = %28
  %.sroa.7.0.extract.trunc.i = trunc i32 %.sroa.7.0.extract.shift.i to i8
  %.sroa.5.0.extract.trunc.i = trunc i32 %.sroa.5.0.extract.shift.i to i8
  %.sroa.0.0.extract.trunc.i = trunc i32 %34 to i8
  br label %nk_rgb_factor.exit52

37:                                               ; preds = %28
  %38 = and i32 %34, 255
  %39 = uitofp nneg i32 %38 to float
  %40 = fmul float %33, %39
  %41 = fptoui float %40 to i8
  %42 = and i32 %.sroa.5.0.extract.shift.i, 255
  %43 = uitofp nneg i32 %42 to float
  %44 = fmul float %33, %43
  %45 = fptoui float %44 to i8
  %46 = and i32 %.sroa.7.0.extract.shift.i, 255
  %47 = uitofp nneg i32 %46 to float
  %48 = fmul float %33, %47
  %49 = fptoui float %48 to i8
  br label %nk_rgb_factor.exit52

nk_rgb_factor.exit52:                             ; preds = %36, %37
  %.sroa.3.0.i41 = phi i8 [ %.sroa.5.0.extract.trunc.i, %36 ], [ %45, %37 ]
  %.sroa.011.0.i42 = phi i8 [ %.sroa.0.0.extract.trunc.i, %36 ], [ %41, %37 ]
  %.sroa.512.0.i43 = phi i8 [ %.sroa.7.0.extract.trunc.i, %36 ], [ %49, %37 ]
  %.sroa.9.0.extract.shift.i = and i32 %34, -16777216
  %.sroa.512.0.insert.ext.i44 = zext i8 %.sroa.512.0.i43 to i32
  %.sroa.512.0.insert.shift.i45 = shl nuw nsw i32 %.sroa.512.0.insert.ext.i44, 16
  %.sroa.512.0.insert.insert.i46 = or disjoint i32 %.sroa.512.0.insert.shift.i45, %.sroa.9.0.extract.shift.i
  %.sroa.3.0.insert.ext.i47 = zext i8 %.sroa.3.0.i41 to i32
  %.sroa.3.0.insert.shift.i48 = shl nuw nsw i32 %.sroa.3.0.insert.ext.i47, 8
  %.sroa.3.0.insert.insert.i49 = or disjoint i32 %.sroa.512.0.insert.insert.i46, %.sroa.3.0.insert.shift.i48
  %.sroa.011.0.insert.ext.i50 = zext i8 %.sroa.011.0.i42 to i32
  %.sroa.011.0.insert.insert.i51 = or disjoint i32 %.sroa.3.0.insert.insert.i49, %.sroa.011.0.insert.ext.i50
  %50 = load <2 x float>, ptr %1, align 4
  %51 = getelementptr inbounds nuw i8, ptr %1, i64 8
  %52 = load <2 x float>, ptr %51, align 4
  tail call void @nk_fill_rect(ptr noundef nonnull %0, <2 x float> %50, <2 x float> %52, float noundef %30, i32 %.sroa.011.0.insert.insert.i51)
  %53 = load float, ptr %29, align 4, !tbaa !745
  %54 = getelementptr inbounds nuw i8, ptr %3, i64 152
  %55 = load float, ptr %54, align 8, !tbaa !744
  %56 = getelementptr inbounds nuw i8, ptr %3, i64 120
  %57 = load float, ptr %32, align 4, !tbaa !747
  %58 = load i32, ptr %56, align 8
  %.sroa.5.0.extract.shift.i53 = lshr i32 %58, 8
  %.sroa.7.0.extract.shift.i54 = lshr i32 %58, 16
  %59 = fcmp oeq float %57, 1.000000e+00
  br i1 %59, label %60, label %61

60:                                               ; preds = %nk_rgb_factor.exit52
  %.sroa.7.0.extract.trunc.i67 = trunc i32 %.sroa.7.0.extract.shift.i54 to i8
  %.sroa.5.0.extract.trunc.i68 = trunc i32 %.sroa.5.0.extract.shift.i53 to i8
  %.sroa.0.0.extract.trunc.i69 = trunc i32 %58 to i8
  br label %nk_rgb_factor.exit70

61:                                               ; preds = %nk_rgb_factor.exit52
  %62 = and i32 %58, 255
  %63 = uitofp nneg i32 %62 to float
  %64 = fmul float %57, %63
  %65 = fptoui float %64 to i8
  %66 = and i32 %.sroa.5.0.extract.shift.i53, 255
  %67 = uitofp nneg i32 %66 to float
  %68 = fmul float %57, %67
  %69 = fptoui float %68 to i8
  %70 = and i32 %.sroa.7.0.extract.shift.i54, 255
  %71 = uitofp nneg i32 %70 to float
  %72 = fmul float %57, %71
  %73 = fptoui float %72 to i8
  br label %nk_rgb_factor.exit70

nk_rgb_factor.exit70:                             ; preds = %60, %61
  %.sroa.3.0.i55 = phi i8 [ %.sroa.5.0.extract.trunc.i68, %60 ], [ %69, %61 ]
  %.sroa.011.0.i56 = phi i8 [ %.sroa.0.0.extract.trunc.i69, %60 ], [ %65, %61 ]
  %.sroa.512.0.i57 = phi i8 [ %.sroa.7.0.extract.trunc.i67, %60 ], [ %73, %61 ]
  %.sroa.9.0.extract.shift.i58 = and i32 %58, -16777216
  %.sroa.512.0.insert.ext.i59 = zext i8 %.sroa.512.0.i57 to i32
  %.sroa.512.0.insert.shift.i60 = shl nuw nsw i32 %.sroa.512.0.insert.ext.i59, 16
  %.sroa.512.0.insert.insert.i61 = or disjoint i32 %.sroa.512.0.insert.shift.i60, %.sroa.9.0.extract.shift.i58
  %.sroa.3.0.insert.ext.i62 = zext i8 %.sroa.3.0.i55 to i32
  %.sroa.3.0.insert.shift.i63 = shl nuw nsw i32 %.sroa.3.0.insert.ext.i62, 8
  %.sroa.3.0.insert.insert.i64 = or disjoint i32 %.sroa.512.0.insert.insert.i61, %.sroa.3.0.insert.shift.i63
  %.sroa.011.0.insert.ext.i65 = zext i8 %.sroa.011.0.i56 to i32
  %.sroa.011.0.insert.insert.i66 = or disjoint i32 %.sroa.3.0.insert.insert.i64, %.sroa.011.0.insert.ext.i65
  %74 = load <2 x float>, ptr %1, align 4
  %75 = load <2 x float>, ptr %51, align 4
  tail call void @nk_stroke_rect(ptr noundef nonnull %0, <2 x float> %74, <2 x float> %75, float noundef %53, float noundef %55, i32 %.sroa.011.0.insert.insert.i66)
  br label %76

76:                                               ; preds = %nk_rgb_factor.exit70, %nk_rgb_factor.exit40, %nk_rgb_factor.exit, %4
  ret ptr %.0
}